; ModuleID = 'source-C-CXX/51/2106.c'
source_filename = "source-C-CXX/51/2106.c"
target datalayout = "e-m:e-p270:32:32-p271:32:32-p272:64:64-i64:64-f80:128-n8:16:32:64-S128"
target triple = "x86_64-pc-linux-gnu"

@.str = private unnamed_addr constant [6 x i8] c"%d %d\00", align 1
@.str.1 = private unnamed_addr constant [3 x i8] c"%d\00", align 1
@.str.2 = private unnamed_addr constant [4 x i8] c"%d \00", align 1

; Function Attrs: nofree nounwind sspstrong uwtable
define dso_local void @main() local_unnamed_addr #0 {
  %1 = alloca i32, align 4
  %2 = alloca i32, align 4
  %3 = alloca [100 x i32], align 16
  %4 = bitcast i32* %1 to i8*
  call void @llvm.lifetime.start.p0i8(i64 4, i8* nonnull %4) #3
  %5 = bitcast i32* %2 to i8*
  call void @llvm.lifetime.start.p0i8(i64 4, i8* nonnull %5) #3
  %6 = bitcast [100 x i32]* %3 to i8*
  call void @llvm.lifetime.start.p0i8(i64 400, i8* nonnull %6) #3
  %7 = call i32 (i8*, ...) @__isoc99_scanf(i8* getelementptr inbounds ([6 x i8], [6 x i8]* @.str, i64 0, i64 0), i32* nonnull %1, i32* nonnull %2)
  %8 = load i32, i32* %1, align 4, !tbaa !5
  %9 = icmp sgt i32 %8, 0
  br i1 %9, label %10, label %18

10:                                               ; preds = %0, %10
  %11 = phi i64 [ %14, %10 ], [ 0, %0 ]
  %12 = getelementptr inbounds [100 x i32], [100 x i32]* %3, i64 0, i64 %11
  %13 = call i32 (i8*, ...) @__isoc99_scanf(i8* getelementptr inbounds ([3 x i8], [3 x i8]* @.str.1, i64 0, i64 0), i32* nonnull %12)
  %14 = add nuw nsw i64 %11, 1
  %15 = load i32, i32* %1, align 4, !tbaa !5
  %16 = sext i32 %15 to i64
  %17 = icmp slt i64 %14, %16
  br i1 %17, label %10, label %18, !llvm.loop !9

18:                                               ; preds = %10, %0
  %19 = phi i32 [ %8, %0 ], [ %15, %10 ]
  %20 = load i32, i32* %2, align 4, !tbaa !5
  %21 = sub nsw i32 %19, %20
  %22 = icmp sgt i32 %20, 0
  br i1 %22, label %23, label %37

23:                                               ; preds = %18
  %24 = sext i32 %21 to i64
  %25 = getelementptr inbounds [100 x i32], [100 x i32]* %3, i64 0, i64 %24
  br label %26

26:                                               ; preds = %23, %26
  %27 = phi i32* [ %32, %26 ], [ %25, %23 ]
  %28 = phi i32 [ %31, %26 ], [ %21, %23 ]
  %29 = load i32, i32* %27, align 4, !tbaa !5
  %30 = call i32 (i8*, ...) @printf(i8* nonnull dereferenceable(1) getelementptr inbounds ([4 x i8], [4 x i8]* @.str.2, i64 0, i64 0), i32 %29)
  %31 = add nsw i32 %28, 1
  %32 = getelementptr inbounds i32, i32* %27, i64 1
  %33 = load i32, i32* %1, align 4, !tbaa !5
  %34 = icmp slt i32 %31, %33
  br i1 %34, label %26, label %35, !llvm.loop !11

35:                                               ; preds = %26
  %36 = load i32, i32* %2, align 4, !tbaa !5
  br label %37

37:                                               ; preds = %35, %18
  %38 = phi i32 [ %36, %35 ], [ %20, %18 ]
  %39 = phi i32 [ %33, %35 ], [ %19, %18 ]
  %40 = xor i32 %38, -1
  %41 = add i32 %39, %40
  %42 = icmp sgt i32 %41, 0
  br i1 %42, label %43, label %57

43:                                               ; preds = %37
  %44 = getelementptr inbounds [100 x i32], [100 x i32]* %3, i64 0, i64 0
  br label %45

45:                                               ; preds = %43, %45
  %46 = phi i32* [ %51, %45 ], [ %44, %43 ]
  %47 = phi i32 [ %50, %45 ], [ 0, %43 ]
  %48 = load i32, i32* %46, align 4, !tbaa !5
  %49 = call i32 (i8*, ...) @printf(i8* nonnull dereferenceable(1) getelementptr inbounds ([4 x i8], [4 x i8]* @.str.2, i64 0, i64 0), i32 %48)
  %50 = add nuw nsw i32 %47, 1
  %51 = getelementptr inbounds i32, i32* %46, i64 1
  %52 = load i32, i32* %1, align 4, !tbaa !5
  %53 = load i32, i32* %2, align 4, !tbaa !5
  %54 = xor i32 %53, -1
  %55 = add i32 %52, %54
  %56 = icmp slt i32 %50, %55
  br i1 %56, label %45, label %57, !llvm.loop !12

57:                                               ; preds = %45, %37
  %58 = phi i32 [ %41, %37 ], [ %55, %45 ]
  %59 = sext i32 %58 to i64
  %60 = getelementptr inbounds [100 x i32], [100 x i32]* %3, i64 0, i64 %59
  %61 = load i32, i32* %60, align 4, !tbaa !5
  %62 = call i32 (i8*, ...) @printf(i8* nonnull dereferenceable(1) getelementptr inbounds ([3 x i8], [3 x i8]* @.str.1, i64 0, i64 0), i32 %61)
  call void @llvm.lifetime.end.p0i8(i64 400, i8* nonnull %6) #3
  call void @llvm.lifetime.end.p0i8(i64 4, i8* nonnull %5) #3
  call void @llvm.lifetime.end.p0i8(i64 4, i8* nonnull %4) #3
  ret void
}

; Function Attrs: argmemonly mustprogress nofree nosync nounwind willreturn
declare void @llvm.lifetime.start.p0i8(i64 immarg, i8* nocapture) #1

; Function Attrs: nofree nounwind
declare noundef i32 @__isoc99_scanf(i8* nocapture noundef readonly, ...) local_unnamed_addr #2

; Function Attrs: nofree nounwind
declare noundef i32 @printf(i8* nocapture noundef readonly, ...) local_unnamed_addr #2

; Function Attrs: argmemonly mustprogress nofree nosync nounwind willreturn
declare void @llvm.lifetime.end.p0i8(i64 immarg, i8* nocapture) #1


!llvm.module.flags = !{!0, !1, !2, !3}
!llvm.ident = !{!4}

!0 = !{i32 1, !"wchar_size", i32 4}
!1 = !{i32 7, !"PIC Level", i32 2}
!2 = !{i32 7, !"PIE Level", i32 2}
!3 = !{i32 7, !"uwtable", i32 1}
!4 = !{!"clang version 13.0.0"}
!5 = !{!6, !6, i64 0}
!6 = !{!"int", !7, i64 0}
!7 = !{!"omnipotent char", !8, i64 0}
!8 = !{!"Simple C/C++ TBAA"}
!9 = distinct !{!9, !10}
!10 = !{!"llvm.loop.mustprogress"}
!11 = distinct !{!11, !10}
!12 = distinct !{!12, !10}
